; Function Attrs: nounwind sspstrong uwtable
define dso_local i32 @ruby_brace_glob(ptr noundef nonnull %0, i32 noundef %1, ptr noundef nonnull %2, i64 noundef %3) local_unnamed_addr #0 {
  %5 = alloca %struct.brace_args, align 8
  %6 = tail call nonnull ptr @rb_ascii8bit_encoding() #22
  call void @llvm.lifetime.start.p0(i64 32, ptr nonnull %5) #22
  %7 = and i32 %1, 2147483647
  store ptr %2, ptr %5, align 8, !tbaa !40
  %8 = getelementptr inbounds nuw i8, ptr %5, i64 8
  store ptr null, ptr %8, align 8, !tbaa !42
  %9 = getelementptr inbounds nuw i8, ptr %5, i64 16
  store i64 %3, ptr %9, align 8, !tbaa !43
  %10 = getelementptr inbounds nuw i8, ptr %5, i64 24
  store i32 %7, ptr %10, align 8, !tbaa !44
  %11 = ptrtoint ptr %5 to i64
  %12 = call fastcc i32 @ruby_brace_expand(ptr noundef nonnull %0, i32 noundef %7, ptr noundef nonnull @glob_brace, i64 noundef %11, ptr noundef nonnull %6, i64 noundef 0)
  call void @llvm.lifetime.end.p0(i64 32, ptr nonnull %5) #22
  ret i32 %12
}